; Function Attrs: nounwind uwtable
define float @Tim_ManGetCiArrival(ptr noundef %0, i32 noundef %1) local_unnamed_addr #2 {
  %3 = getelementptr i8, ptr %0, i64 40
  %.val = load ptr, ptr %3, align 8, !tbaa !3
  %4 = sext i32 %1 to i64
  %5 = getelementptr inbounds %struct.Tim_Obj_t_, ptr %.val, i64 %4
  %6 = getelementptr inbounds nuw i8, ptr %0, i64 28
  %7 = load i32, ptr %6, align 4, !tbaa !25
  %.not = icmp eq i32 %7, 0
  br i1 %.not, label %._crit_edge, label %8

._crit_edge:                                      ; preds = %2
  %.phi.trans.insert = getelementptr inbounds nuw i8, ptr %0, i64 24
  %.pre = load i32, ptr %.phi.trans.insert, align 8, !tbaa !22
  br label %14

8:                                                ; preds = %2
  %9 = getelementptr inbounds nuw i8, ptr %5, i64 4
  %10 = load i32, ptr %9, align 4, !tbaa !23
  %11 = getelementptr inbounds nuw i8, ptr %0, i64 24
  %12 = load i32, ptr %11, align 8, !tbaa !22
  %13 = icmp eq i32 %10, %12
  br i1 %13, label %.critedge2, label %14

14:                                               ; preds = %._crit_edge, %8
  %15 = phi i32 [ %.pre, %._crit_edge ], [ %12, %8 ]
  %16 = getelementptr inbounds nuw i8, ptr %0, i64 24
  %17 = getelementptr inbounds nuw i8, ptr %5, i64 4
  store i32 %15, ptr %17, align 4, !tbaa !23
  %18 = getelementptr inbounds %struct.Tim_Obj_t_, ptr %.val, i64 %4, i32 2
  %19 = load i32, ptr %18, align 4, !tbaa !18
  %20 = icmp slt i32 %19, 0
  br i1 %20, label %.critedge2, label %Tim_ManCiBox.exit

Tim_ManCiBox.exit:                                ; preds = %14
  %21 = load ptr, ptr %0, align 8, !tbaa !26
  %22 = getelementptr i8, ptr %21, i64 8
  %.val5.i = load ptr, ptr %22, align 8, !tbaa !27
  %23 = zext nneg i32 %19 to i64
  %24 = getelementptr inbounds nuw ptr, ptr %.val5.i, i64 %23
  %25 = load ptr, ptr %24, align 8, !tbaa !29
  %26 = icmp eq ptr %25, null
  br i1 %26, label %.critedge2, label %27

27:                                               ; preds = %Tim_ManCiBox.exit
  %28 = getelementptr inbounds nuw i8, ptr %25, i64 4
  store i32 %15, ptr %28, align 4, !tbaa !30
  br i1 %.not, label %.critedge, label %.preheader

.preheader:                                       ; preds = %27
  %29 = getelementptr i8, ptr %0, i64 48
  %30 = getelementptr inbounds nuw i8, ptr %25, i64 8
  %31 = load i32, ptr %30, align 4, !tbaa !32
  %32 = icmp sgt i32 %31, 0
  br i1 %32, label %.lr.ph, label %.critedge

.lr.ph:                                           ; preds = %.preheader
  %33 = getelementptr inbounds nuw i8, ptr %25, i64 28
  br label %34

34:                                               ; preds = %.lr.ph, %44
  %35 = phi i32 [ %31, %.lr.ph ], [ %45, %44 ]
  %indvars.iv = phi i64 [ 0, %.lr.ph ], [ %indvars.iv.next, %44 ]
  %.val69 = load ptr, ptr %29, align 8, !tbaa !15
  %.not65 = icmp eq ptr %.val69, null
  br i1 %.not65, label %.critedge, label %36

36:                                               ; preds = %34
  %37 = getelementptr inbounds nuw [0 x i32], ptr %33, i64 0, i64 %indvars.iv
  %38 = load i32, ptr %37, align 4, !tbaa !33
  %39 = sext i32 %38 to i64
  %40 = getelementptr inbounds %struct.Tim_Obj_t_, ptr %.val69, i64 %39, i32 1
  %41 = load i32, ptr %40, align 4, !tbaa !23
  %42 = load i32, ptr %16, align 8, !tbaa !22
  %.not68 = icmp eq i32 %41, %42
  br i1 %.not68, label %44, label %43

43:                                               ; preds = %36
  %puts = tail call i32 @puts(ptr nonnull dereferenceable(1) @str)
  %.pre104 = load i32, ptr %30, align 4, !tbaa !32
  br label %44

44:                                               ; preds = %36, %43
  %45 = phi i32 [ %35, %36 ], [ %.pre104, %43 ]
  %indvars.iv.next = add nuw nsw i64 %indvars.iv, 1
  %46 = sext i32 %45 to i64
  %47 = icmp slt i64 %indvars.iv.next, %46
  br i1 %47, label %34, label %.critedge, !llvm.loop !34

.critedge:                                        ; preds = %44, %34, %.preheader, %27
  %48 = load i32, ptr %25, align 4, !tbaa !35
  %49 = tail call ptr @Tim_ManBoxDelayTable(ptr noundef nonnull %0, i32 noundef %48) #7
  %50 = getelementptr inbounds nuw i8, ptr %25, i64 12
  %51 = load i32, ptr %50, align 4, !tbaa !36
  %52 = icmp sgt i32 %51, 0
  br i1 %52, label %.lr.ph80, label %.critedge2

.lr.ph80:                                         ; preds = %.critedge
  %.val71 = load ptr, ptr %3, align 8, !tbaa !3
  %53 = getelementptr inbounds nuw i8, ptr %25, i64 28
  %54 = getelementptr inbounds nuw i8, ptr %25, i64 8
  %55 = load i32, ptr %54, align 4, !tbaa !32
  %.not66 = icmp eq ptr %.val71, null
  %56 = getelementptr inbounds nuw i8, ptr %49, i64 12
  %57 = getelementptr i8, ptr %0, i64 48
  br i1 %.not66, label %.critedge2, label %.lr.ph80.split

.lr.ph80.split:                                   ; preds = %.lr.ph80
  %58 = icmp sgt i32 %55, 0
  %59 = load i32, ptr %16, align 8, !tbaa !22
  br i1 %58, label %.lr.ph80.split.split.us, label %.critedge4.preheader

.critedge4.preheader:                             ; preds = %.lr.ph80.split
  %60 = sext i32 %55 to i64
  %wide.trip.count = zext nneg i32 %51 to i64
  br label %.critedge4

.lr.ph80.split.split.us:                          ; preds = %.lr.ph80.split
  %.val70.us = load ptr, ptr %57, align 8, !tbaa !15
  %.not67.us = icmp eq ptr %.val70.us, null
  %61 = zext nneg i32 %55 to i64
  %wide.trip.count102 = zext nneg i32 %51 to i64
  br i1 %.not67.us, label %.lr.ph76.us.us, label %.lr.ph76.us

.lr.ph76.us.us:                                   ; preds = %.lr.ph80.split.split.us, %.lr.ph76.us.us
  %indvars.iv99 = phi i64 [ %indvars.iv.next100, %.lr.ph76.us.us ], [ 0, %.lr.ph80.split.split.us ]
  %62 = add nuw nsw i64 %indvars.iv99, %61
  %63 = getelementptr inbounds nuw [0 x i32], ptr %53, i64 0, i64 %62
  %64 = load i32, ptr %63, align 4, !tbaa !33
  %65 = sext i32 %64 to i64
  %66 = getelementptr inbounds %struct.Tim_Obj_t_, ptr %.val71, i64 %65
  %67 = getelementptr inbounds nuw i8, ptr %66, i64 16
  store float -1.000000e+09, ptr %67, align 4, !tbaa !12
  %68 = getelementptr inbounds nuw i8, ptr %66, i64 4
  store i32 %59, ptr %68, align 4, !tbaa !23
  %indvars.iv.next100 = add nuw nsw i64 %indvars.iv99, 1
  %exitcond103.not = icmp eq i64 %indvars.iv.next100, %wide.trip.count102
  br i1 %exitcond103.not, label %.critedge2, label %.lr.ph76.us.us, !llvm.loop !37

.lr.ph76.us:                                      ; preds = %.lr.ph80.split.split.us, %..critedge4_crit_edge.us
  %indvars.iv94 = phi i64 [ %indvars.iv.next95, %..critedge4_crit_edge.us ], [ 0, %.lr.ph80.split.split.us ]
  %69 = add nuw nsw i64 %indvars.iv94, %61
  %70 = getelementptr inbounds nuw [0 x i32], ptr %53, i64 0, i64 %69
  %71 = load i32, ptr %70, align 4, !tbaa !33
  %72 = sext i32 %71 to i64
  %73 = mul nuw nsw i64 %indvars.iv94, %61
  %74 = getelementptr inbounds nuw float, ptr %56, i64 %73
  br label %75

75:                                               ; preds = %.lr.ph76.us, %90
  %indvars.iv89 = phi i64 [ 0, %.lr.ph76.us ], [ %indvars.iv.next90, %90 ]
  %.05674.us = phi float [ -1.000000e+09, %.lr.ph76.us ], [ %.157.us, %90 ]
  %76 = getelementptr inbounds nuw float, ptr %74, i64 %indvars.iv89
  %77 = load float, ptr %76, align 4, !tbaa !38
  %78 = fcmp une float %77, -1.000000e+09
  br i1 %78, label %79, label %90

79:                                               ; preds = %75
  %80 = getelementptr inbounds nuw [0 x i32], ptr %53, i64 0, i64 %indvars.iv89
  %81 = load i32, ptr %80, align 4, !tbaa !33
  %82 = sext i32 %81 to i64
  %83 = fptosi float %.05674.us to i32
  %84 = getelementptr inbounds %struct.Tim_Obj_t_, ptr %.val70.us, i64 %82, i32 4
  %85 = load float, ptr %84, align 4, !tbaa !12
  %86 = fadd float %77, %85
  %87 = fptosi float %86 to i32
  %88 = tail call noundef i32 @llvm.smax.i32(i32 %83, i32 %87)
  %89 = sitofp i32 %88 to float
  br label %90

90:                                               ; preds = %79, %75
  %.157.us = phi float [ %89, %79 ], [ %.05674.us, %75 ]
  %indvars.iv.next90 = add nuw nsw i64 %indvars.iv89, 1
  %exitcond93.not = icmp eq i64 %indvars.iv.next90, %61
  br i1 %exitcond93.not, label %..critedge4_crit_edge.us, label %75, !llvm.loop !39

..critedge4_crit_edge.us:                         ; preds = %90
  %91 = getelementptr inbounds %struct.Tim_Obj_t_, ptr %.val71, i64 %72
  %92 = getelementptr inbounds nuw i8, ptr %91, i64 16
  store float %.157.us, ptr %92, align 4, !tbaa !12
  %93 = getelementptr inbounds nuw i8, ptr %91, i64 4
  store i32 %59, ptr %93, align 4, !tbaa !23
  %indvars.iv.next95 = add nuw nsw i64 %indvars.iv94, 1
  %exitcond98.not = icmp eq i64 %indvars.iv.next95, %wide.trip.count102
  br i1 %exitcond98.not, label %.critedge2, label %.lr.ph76.us, !llvm.loop !37

.critedge4:                                       ; preds = %.critedge4.preheader, %.critedge4
  %indvars.iv86 = phi i64 [ 0, %.critedge4.preheader ], [ %indvars.iv.next87, %.critedge4 ]
  %94 = add nsw i64 %indvars.iv86, %60
  %95 = getelementptr inbounds [0 x i32], ptr %53, i64 0, i64 %94
  %96 = load i32, ptr %95, align 4, !tbaa !33
  %97 = sext i32 %96 to i64
  %98 = getelementptr inbounds %struct.Tim_Obj_t_, ptr %.val71, i64 %97
  %99 = getelementptr inbounds nuw i8, ptr %98, i64 16
  store float -1.000000e+09, ptr %99, align 4, !tbaa !12
  %100 = getelementptr inbounds nuw i8, ptr %98, i64 4
  store i32 %59, ptr %100, align 4, !tbaa !23
  %indvars.iv.next87 = add nuw nsw i64 %indvars.iv86, 1
  %exitcond.not = icmp eq i64 %indvars.iv.next87, %wide.trip.count
  br i1 %exitcond.not, label %.critedge2, label %.critedge4, !llvm.loop !37

.critedge2:                                       ; preds = %.critedge4, %..critedge4_crit_edge.us, %.lr.ph76.us.us, %.critedge, %.lr.ph80, %14, %Tim_ManCiBox.exit, %8
  %.058.in = getelementptr inbounds nuw i8, ptr %5, i64 16
  %.058 = load float, ptr %.058.in, align 4, !tbaa !12
  ret float %.058
}